; ModuleID = '30/3280.c'
source_filename = "30/3280.c"
target datalayout = "e-m:e-p270:32:32-p271:32:32-p272:64:64-i64:64-f80:128-n8:16:32:64-S128"
target triple = "x86_64-pc-linux-gnu"

@.str = private unnamed_addr constant [3 x i8] c"%d\00", align 1

; Function Attrs: noinline nounwind uwtable
define dso_local i32 @main() #0 {
  %1 = alloca i32, align 4
  %2 = alloca i32, align 4
  %3 = alloca i32, align 4
  %4 = alloca i32, align 4
  %5 = alloca i32, align 4
  store i32 0, i32* %1, align 4
  store i32 0, i32* %5, align 4
  %6 = call i32 (i8*, ...) @__isoc99_scanf(i8* getelementptr inbounds ([3 x i8], [3 x i8]* @.str, i64 0, i64 0), i32* %2)
  store i32 1, i32* %3, align 4
  br label %7

7:                                                ; preds = %42, %0
  %8 = load i32, i32* %3, align 4
  %9 = load i32, i32* %2, align 4
  %10 = icmp sle i32 %8, %9
  br i1 %10, label %11, label %45

11:                                               ; preds = %7
  %12 = load i32, i32* %3, align 4
  store i32 %12, i32* %4, align 4
  br label %13

13:                                               ; preds = %22, %11
  %14 = load i32, i32* %4, align 4
  %15 = icmp sgt i32 %14, 0
  br i1 %15, label %16, label %28

16:                                               ; preds = %13
  %17 = load i32, i32* %4, align 4
  %18 = srem i32 %17, 10
  %19 = icmp eq i32 %18, 7
  br i1 %19, label %20, label %21

20:                                               ; preds = %16
  br label %28

21:                                               ; preds = %16
  br label %22

22:                                               ; preds = %21
  %23 = load i32, i32* %4, align 4
  %24 = load i32, i32* %4, align 4
  %25 = srem i32 %24, 10
  %26 = sub nsw i32 %23, %25
  %27 = sdiv i32 %26, 10
  store i32 %27, i32* %4, align 4
  br label %13

28:                                               ; preds = %20, %13
  %29 = load i32, i32* %3, align 4
  %30 = srem i32 %29, 7
  %31 = icmp ne i32 %30, 0
  br i1 %31, label %32, label %41

32:                                               ; preds = %28
  %33 = load i32, i32* %4, align 4
  %34 = icmp sle i32 %33, 0
  br i1 %34, label %35, label %41

35:                                               ; preds = %32
  %36 = load i32, i32* %3, align 4
  %37 = load i32, i32* %3, align 4
  %38 = mul nsw i32 %36, %37
  %39 = load i32, i32* %5, align 4
  %40 = add nsw i32 %39, %38
  store i32 %40, i32* %5, align 4
  br label %41

41:                                               ; preds = %35, %32, %28
  br label %42

42:                                               ; preds = %41
  %43 = load i32, i32* %3, align 4
  %44 = add nsw i32 %43, 1
  store i32 %44, i32* %3, align 4
  br label %7

45:                                               ; preds = %7
  %46 = load i32, i32* %5, align 4
  %47 = call i32 (i8*, ...) @printf(i8* getelementptr inbounds ([3 x i8], [3 x i8]* @.str, i64 0, i64 0), i32 %46)
  ret i32 0
}

declare dso_local i32 @__isoc99_scanf(i8*, ...) #1

declare dso_local i32 @printf(i8*, ...) #1


!llvm.module.flags = !{!0}
!llvm.ident = !{!1}

!0 = !{i32 1, !"wchar_size", i32 4}
!1 = !{!"clang version 10.0.0-4ubuntu1 "}
