; ModuleID = 'source-C-CXX/29/3280.c'
source_filename = "source-C-CXX/29/3280.c"
target datalayout = "e-m:e-p270:32:32-p271:32:32-p272:64:64-i64:64-f80:128-n8:16:32:64-S128"
target triple = "x86_64-pc-linux-gnu"

@.str = private unnamed_addr constant [3 x i8] c"%d\00", align 1

; Function Attrs: nofree nounwind sspstrong uwtable
define dso_local i32 @main() local_unnamed_addr #0 {
  %1 = alloca i32, align 4
  %2 = bitcast i32* %1 to i8*
  call void @llvm.lifetime.start.p0i8(i64 4, i8* nonnull %2) #3
  %3 = call i32 (i8*, ...) @__isoc99_scanf(i8* getelementptr inbounds ([3 x i8], [3 x i8]* @.str, i64 0, i64 0), i32* nonnull %1)
  %4 = load i32, i32* %1, align 4, !tbaa !5
  %5 = icmp slt i32 %4, 1
  br i1 %5, label %29, label %6

6:                                                ; preds = %0, %18
  %7 = phi i32 [ %26, %18 ], [ 0, %0 ]
  %8 = phi i32 [ %27, %18 ], [ 1, %0 ]
  %9 = urem i32 %8, 10
  %10 = icmp eq i32 %9, 7
  br i1 %10, label %18, label %11

11:                                               ; preds = %6, %11
  %12 = phi i32 [ %13, %11 ], [ %8, %6 ]
  %13 = udiv i32 %12, 10
  %14 = icmp ult i32 %12, 10
  %15 = urem i32 %13, 10
  %16 = icmp eq i32 %15, 7
  %17 = or i1 %14, %16
  br i1 %17, label %18, label %11, !llvm.loop !9

18:                                               ; preds = %11, %6
  %19 = phi i32 [ 1, %6 ], [ %13, %11 ]
  %20 = urem i32 %8, 7
  %21 = icmp ne i32 %20, 0
  %22 = icmp eq i32 %19, 0
  %23 = select i1 %21, i1 %22, i1 false
  %24 = mul nsw i32 %8, %8
  %25 = select i1 %23, i32 %24, i32 0
  %26 = add nuw nsw i32 %25, %7
  %27 = add nuw i32 %8, 1
  %28 = icmp eq i32 %8, %4
  br i1 %28, label %29, label %6, !llvm.loop !11

29:                                               ; preds = %18, %0
  %30 = phi i32 [ 0, %0 ], [ %26, %18 ]
  %31 = call i32 (i8*, ...) @printf(i8* nonnull dereferenceable(1) getelementptr inbounds ([3 x i8], [3 x i8]* @.str, i64 0, i64 0), i32 %30)
  call void @llvm.lifetime.end.p0i8(i64 4, i8* nonnull %2) #3
  ret i32 0
}

; Function Attrs: argmemonly mustprogress nofree nosync nounwind willreturn
declare void @llvm.lifetime.start.p0i8(i64 immarg, i8* nocapture) #1

; Function Attrs: nofree nounwind
declare noundef i32 @__isoc99_scanf(i8* nocapture noundef readonly, ...) local_unnamed_addr #2

; Function Attrs: nofree nounwind
declare noundef i32 @printf(i8* nocapture noundef readonly, ...) local_unnamed_addr #2

; Function Attrs: argmemonly mustprogress nofree nosync nounwind willreturn
declare void @llvm.lifetime.end.p0i8(i64 immarg, i8* nocapture) #1


!llvm.module.flags = !{!0, !1, !2, !3}
!llvm.ident = !{!4}

!0 = !{i32 1, !"wchar_size", i32 4}
!1 = !{i32 7, !"PIC Level", i32 2}
!2 = !{i32 7, !"PIE Level", i32 2}
!3 = !{i32 7, !"uwtable", i32 1}
!4 = !{!"clang version 13.0.0"}
!5 = !{!6, !6, i64 0}
!6 = !{!"int", !7, i64 0}
!7 = !{!"omnipotent char", !8, i64 0}
!8 = !{!"Simple C/C++ TBAA"}
!9 = distinct !{!9, !10}
!10 = !{!"llvm.loop.mustprogress"}
!11 = distinct !{!11, !10}
